target datalayout = "e-m:e-p270:32:32-p271:32:32-p272:64:64-i64:64-i128:128-f80:128-n8:16:32:64-S128"
target triple = "x86_64-pc-linux-gnu"

%struct.OSSL_TIME = type { i64 }
%struct.CRYPTO_REF_COUNT = type { i32 }
%struct.crypto_ex_data_st = type { ptr, ptr }
%struct.srp_ctx_st = type { ptr, ptr, ptr, ptr, ptr, ptr, ptr, ptr, ptr, ptr, ptr, ptr, ptr, ptr, i32, i64 }
%struct.ssl_ctx_st = type { ptr, ptr, ptr, ptr, ptr, ptr, ptr, i64, ptr, ptr, i32, %struct.OSSL_TIME, ptr, ptr, ptr, %struct.anon.3, %struct.CRYPTO_REF_COUNT, ptr, ptr, ptr, ptr, ptr, ptr, ptr, ptr, ptr, %struct.crypto_ex_data_st, ptr, ptr, ptr, ptr, ptr, ptr, ptr, i64, i32, i32, i32, i64, ptr, ptr, i32, ptr, ptr, i32, i64, [32 x i8], ptr, ptr, ptr, i32, ptr, ptr, ptr, i64, i64, i64, i64, ptr, ptr, ptr, ptr, ptr, %struct.anon.4, ptr, ptr, ptr, ptr, %struct.srp_ctx_st, %struct.dane_ctx_st, ptr, ptr, ptr, ptr, i32, i32, ptr, ptr, i64, i64, ptr, ptr, ptr, i64, ptr, ptr, i32, ptr, ptr, ptr, [14 x i32], [24 x ptr], [14 x ptr], [14 x i64], i64, ptr, ptr, ptr, i64, i64, ptr, i64, i64, i32, i32, i32, i32, ptr, i64, ptr, i64, i64, ptr, ptr }
%struct.anon.3 = type { i32, i32, i32, i32, i32, i32, i32, i32, i32, i32, i32 }
%struct.anon.4 = type { ptr, ptr, [16 x i8], ptr, ptr, ptr, ptr, ptr, i32, i8, i64, ptr, i64, ptr, i64, ptr, i64, ptr, ptr, i64, ptr, ptr, ptr, i64, ptr, ptr, ptr, ptr, [32 x i8] }
%struct.dane_ctx_st = type { ptr, ptr, i8, i64 }
%struct.tls_group_info_st = type { ptr, ptr, ptr, i32, i16, i32, i32, i32, i32, i8 }

@.str.2 = private unnamed_addr constant [24 x i8] c"../openssl/ssl/t1_lib.c\00", align 1
@supported_groups_default = internal constant [17 x i16] [i16 29, i16 23, i16 30, i16 25, i16 24, i16 34, i16 35, i16 36, i16 37, i16 38, i16 39, i16 40, i16 256, i16 257, i16 258, i16 259, i16 260], align 16

; Function Attrs: nounwind uwtable
define i32 @ssl_load_groups(ptr noundef %0) #1 {
  %2 = alloca i32, align 4
  %3 = alloca ptr, align 8
  %4 = alloca i64, align 8
  %5 = alloca i64, align 8
  %6 = alloca i64, align 8
  %7 = alloca [17 x i16], align 16
  %8 = alloca i32, align 4
  store ptr %0, ptr %3, align 8, !tbaa !80
  call void @llvm.lifetime.start.p0(i64 8, ptr %4) #8
  call void @llvm.lifetime.start.p0(i64 8, ptr %5) #8
  call void @llvm.lifetime.start.p0(i64 8, ptr %6) #8
  store i64 0, ptr %6, align 8, !tbaa !3
  call void @llvm.lifetime.start.p0(i64 34, ptr %7) #8
  %9 = load ptr, ptr %3, align 8, !tbaa !80
  %10 = getelementptr inbounds nuw %struct.ssl_ctx_st, ptr %9, i32 0, i32 0
  %11 = load ptr, ptr %10, align 8, !tbaa !81
  %12 = load ptr, ptr %3, align 8, !tbaa !80
  %13 = call i32 @OSSL_PROVIDER_do_all(ptr noundef %11, ptr noundef @discover_provider_groups, ptr noundef %12)
  %14 = icmp ne i32 %13, 0
  br i1 %14, label %16, label %15

15:                                               ; preds = %1
  store i32 0, ptr %2, align 4
  store i32 1, ptr %8, align 4
  br label %145

16:                                               ; preds = %1
  store i64 0, ptr %4, align 8, !tbaa !3
  br label %17

17:                                               ; preds = %57, %16
  %18 = load i64, ptr %4, align 8, !tbaa !3
  %19 = icmp ult i64 %18, 17
  br i1 %19, label %20, label %60

20:                                               ; preds = %17
  store i64 0, ptr %5, align 8, !tbaa !3
  br label %21

21:                                               ; preds = %53, %20
  %22 = load i64, ptr %5, align 8, !tbaa !3
  %23 = load ptr, ptr %3, align 8, !tbaa !80
  %24 = getelementptr inbounds nuw %struct.ssl_ctx_st, ptr %23, i32 0, i32 98
  %25 = load i64, ptr %24, align 8, !tbaa !96
  %26 = icmp ult i64 %22, %25
  br i1 %26, label %27, label %56

27:                                               ; preds = %21
  %28 = load ptr, ptr %3, align 8, !tbaa !80
  %29 = getelementptr inbounds nuw %struct.ssl_ctx_st, ptr %28, i32 0, i32 97
  %30 = load ptr, ptr %29, align 8, !tbaa !97
  %31 = load i64, ptr %5, align 8, !tbaa !3
  %32 = getelementptr inbounds nuw %struct.tls_group_info_st, ptr %30, i64 %31
  %33 = getelementptr inbounds nuw %struct.tls_group_info_st, ptr %32, i32 0, i32 4
  %34 = load i16, ptr %33, align 4, !tbaa !98
  %35 = zext i16 %34 to i32
  %36 = load i64, ptr %4, align 8, !tbaa !3
  %37 = getelementptr inbounds nuw [17 x i16], ptr @supported_groups_default, i64 0, i64 %36
  %38 = load i16, ptr %37, align 2, !tbaa !100
  %39 = zext i16 %38 to i32
  %40 = icmp eq i32 %35, %39
  br i1 %40, label %41, label %52

41:                                               ; preds = %27
  %42 = load ptr, ptr %3, align 8, !tbaa !80
  %43 = getelementptr inbounds nuw %struct.ssl_ctx_st, ptr %42, i32 0, i32 97
  %44 = load ptr, ptr %43, align 8, !tbaa !97
  %45 = load i64, ptr %5, align 8, !tbaa !3
  %46 = getelementptr inbounds nuw %struct.tls_group_info_st, ptr %44, i64 %45
  %47 = getelementptr inbounds nuw %struct.tls_group_info_st, ptr %46, i32 0, i32 4
  %48 = load i16, ptr %47, align 4, !tbaa !98
  %49 = load i64, ptr %6, align 8, !tbaa !3
  %50 = add i64 %49, 1
  store i64 %50, ptr %6, align 8, !tbaa !3
  %51 = getelementptr inbounds nuw [17 x i16], ptr %7, i64 0, i64 %49
  store i16 %48, ptr %51, align 2, !tbaa !100
  br label %56

52:                                               ; preds = %27
  br label %53

53:                                               ; preds = %52
  %54 = load i64, ptr %5, align 8, !tbaa !3
  %55 = add i64 %54, 1
  store i64 %55, ptr %5, align 8, !tbaa !3
  br label %21, !llvm.loop !101

56:                                               ; preds = %41, %21
  br label %57

57:                                               ; preds = %56
  %58 = load i64, ptr %4, align 8, !tbaa !3
  %59 = add i64 %58, 1
  store i64 %59, ptr %4, align 8, !tbaa !3
  br label %17, !llvm.loop !103

60:                                               ; preds = %17
  %61 = load i64, ptr %6, align 8, !tbaa !3
  %62 = icmp eq i64 %61, 0
  br i1 %62, label %63, label %64

63:                                               ; preds = %60
  store i32 1, ptr %2, align 4
  store i32 1, ptr %8, align 4
  br label %145

64:                                               ; preds = %60
  %65 = load i64, ptr %6, align 8, !tbaa !3
  %66 = mul i64 2, %65
  %67 = call noalias ptr @CRYPTO_malloc(i64 noundef %66, ptr noundef @.str.2, i32 noundef 402)
  %68 = load ptr, ptr %3, align 8, !tbaa !80
  %69 = getelementptr inbounds nuw %struct.ssl_ctx_st, ptr %68, i32 0, i32 63
  %70 = getelementptr inbounds nuw %struct.anon.4, ptr %69, i32 0, i32 18
  store ptr %67, ptr %70, align 8, !tbaa !104
  %71 = load ptr, ptr %3, align 8, !tbaa !80
  %72 = getelementptr inbounds nuw %struct.ssl_ctx_st, ptr %71, i32 0, i32 63
  %73 = getelementptr inbounds nuw %struct.anon.4, ptr %72, i32 0, i32 18
  %74 = load ptr, ptr %73, align 8, !tbaa !104
  %75 = icmp eq ptr %74, null
  br i1 %75, label %76, label %77

76:                                               ; preds = %64
  store i32 0, ptr %2, align 4
  store i32 1, ptr %8, align 4
  br label %145

77:                                               ; preds = %64
  %78 = load ptr, ptr %3, align 8, !tbaa !80
  %79 = getelementptr inbounds nuw %struct.ssl_ctx_st, ptr %78, i32 0, i32 63
  %80 = getelementptr inbounds nuw %struct.anon.4, ptr %79, i32 0, i32 18
  %81 = load ptr, ptr %80, align 8, !tbaa !104
  %82 = getelementptr inbounds [17 x i16], ptr %7, i64 0, i64 0
  %83 = load i64, ptr %6, align 8, !tbaa !3
  %84 = mul i64 %83, 2
  call void @llvm.memcpy.p0.p0.i64(ptr align 2 %81, ptr align 16 %82, i64 %84, i1 false)
  %85 = load i64, ptr %6, align 8, !tbaa !3
  %86 = load ptr, ptr %3, align 8, !tbaa !80
  %87 = getelementptr inbounds nuw %struct.ssl_ctx_st, ptr %86, i32 0, i32 63
  %88 = getelementptr inbounds nuw %struct.anon.4, ptr %87, i32 0, i32 19
  store i64 %85, ptr %88, align 8, !tbaa !105
  %89 = load ptr, ptr %3, align 8, !tbaa !80
  %90 = getelementptr inbounds nuw %struct.ssl_ctx_st, ptr %89, i32 0, i32 63
  %91 = getelementptr inbounds nuw %struct.anon.4, ptr %90, i32 0, i32 15
  %92 = load ptr, ptr %91, align 8, !tbaa !106
  %93 = icmp eq ptr %92, null
  br i1 %93, label %94, label %99

94:                                               ; preds = %77
  %95 = call noalias ptr @CRYPTO_malloc(i64 noundef 2, ptr noundef @.str.2, i32 noundef 418)
  %96 = load ptr, ptr %3, align 8, !tbaa !80
  %97 = getelementptr inbounds nuw %struct.ssl_ctx_st, ptr %96, i32 0, i32 63
  %98 = getelementptr inbounds nuw %struct.anon.4, ptr %97, i32 0, i32 15
  store ptr %95, ptr %98, align 8, !tbaa !106
  br label %99

99:                                               ; preds = %94, %77
  %100 = load ptr, ptr %3, align 8, !tbaa !80
  %101 = getelementptr inbounds nuw %struct.ssl_ctx_st, ptr %100, i32 0, i32 63
  %102 = getelementptr inbounds nuw %struct.anon.4, ptr %101, i32 0, i32 15
  %103 = load ptr, ptr %102, align 8, !tbaa !106
  %104 = icmp eq ptr %103, null
  br i1 %104, label %105, label %106

105:                                              ; preds = %99
  store i32 0, ptr %2, align 4
  store i32 1, ptr %8, align 4
  br label %145

106:                                              ; preds = %99
  %107 = load ptr, ptr %3, align 8, !tbaa !80
  %108 = getelementptr inbounds nuw %struct.ssl_ctx_st, ptr %107, i32 0, i32 63
  %109 = getelementptr inbounds nuw %struct.anon.4, ptr %108, i32 0, i32 14
  store i64 1, ptr %109, align 8, !tbaa !107
  %110 = load ptr, ptr %3, align 8, !tbaa !80
  %111 = getelementptr inbounds nuw %struct.ssl_ctx_st, ptr %110, i32 0, i32 63
  %112 = getelementptr inbounds nuw %struct.anon.4, ptr %111, i32 0, i32 15
  %113 = load ptr, ptr %112, align 8, !tbaa !106
  %114 = getelementptr inbounds i16, ptr %113, i64 0
  store i16 0, ptr %114, align 2, !tbaa !100
  %115 = load ptr, ptr %3, align 8, !tbaa !80
  %116 = getelementptr inbounds nuw %struct.ssl_ctx_st, ptr %115, i32 0, i32 63
  %117 = getelementptr inbounds nuw %struct.anon.4, ptr %116, i32 0, i32 17
  %118 = load ptr, ptr %117, align 8, !tbaa !108
  %119 = icmp eq ptr %118, null
  br i1 %119, label %120, label %125

120:                                              ; preds = %106
  %121 = call noalias ptr @CRYPTO_malloc(i64 noundef 8, ptr noundef @.str.2, i32 noundef 425)
  %122 = load ptr, ptr %3, align 8, !tbaa !80
  %123 = getelementptr inbounds nuw %struct.ssl_ctx_st, ptr %122, i32 0, i32 63
  %124 = getelementptr inbounds nuw %struct.anon.4, ptr %123, i32 0, i32 17
  store ptr %121, ptr %124, align 8, !tbaa !108
  br label %125

125:                                              ; preds = %120, %106
  %126 = load ptr, ptr %3, align 8, !tbaa !80
  %127 = getelementptr inbounds nuw %struct.ssl_ctx_st, ptr %126, i32 0, i32 63
  %128 = getelementptr inbounds nuw %struct.anon.4, ptr %127, i32 0, i32 17
  %129 = load ptr, ptr %128, align 8, !tbaa !108
  %130 = icmp eq ptr %129, null
  br i1 %130, label %131, label %132

131:                                              ; preds = %125
  store i32 0, ptr %2, align 4
  store i32 1, ptr %8, align 4
  br label %145

132:                                              ; preds = %125
  %133 = load ptr, ptr %3, align 8, !tbaa !80
  %134 = getelementptr inbounds nuw %struct.ssl_ctx_st, ptr %133, i32 0, i32 63
  %135 = getelementptr inbounds nuw %struct.anon.4, ptr %134, i32 0, i32 16
  store i64 1, ptr %135, align 8, !tbaa !109
  %136 = load ptr, ptr %3, align 8, !tbaa !80
  %137 = getelementptr inbounds nuw %struct.ssl_ctx_st, ptr %136, i32 0, i32 63
  %138 = getelementptr inbounds nuw %struct.anon.4, ptr %137, i32 0, i32 19
  %139 = load i64, ptr %138, align 8, !tbaa !105
  %140 = load ptr, ptr %3, align 8, !tbaa !80
  %141 = getelementptr inbounds nuw %struct.ssl_ctx_st, ptr %140, i32 0, i32 63
  %142 = getelementptr inbounds nuw %struct.anon.4, ptr %141, i32 0, i32 17
  %143 = load ptr, ptr %142, align 8, !tbaa !108
  %144 = getelementptr inbounds i64, ptr %143, i64 0
  store i64 %139, ptr %144, align 8, !tbaa !3
  store i32 1, ptr %2, align 4
  store i32 1, ptr %8, align 4
  br label %145

145:                                              ; preds = %132, %131, %105, %76, %63, %15
  call void @llvm.lifetime.end.p0(i64 34, ptr %7) #8
  call void @llvm.lifetime.end.p0(i64 8, ptr %6) #8
  call void @llvm.lifetime.end.p0(i64 8, ptr %5) #8
  call void @llvm.lifetime.end.p0(i64 8, ptr %4) #8
  %146 = load i32, ptr %2, align 4
  ret i32 %146
}