; Function Attrs: nounwind uwtable
define range(i32 0, 2) i32 @ssl_load_groups(ptr noundef %0) local_unnamed_addr #2 {
  %2 = alloca [17 x i16], align 16
  call void @llvm.lifetime.start.p0(i64 34, ptr nonnull %2) #14
  %3 = load ptr, ptr %0, align 8, !tbaa !76
  %4 = tail call i32 @OSSL_PROVIDER_do_all(ptr noundef %3, ptr noundef nonnull @discover_provider_groups, ptr noundef nonnull %0) #14
  %.not = icmp eq i32 %4, 0
  br i1 %.not, label %.split.us.thread, label %.preheader37

.preheader37:                                     ; preds = %1
  %5 = getelementptr inbounds nuw i8, ptr %0, i64 1664
  %6 = load i64, ptr %5, align 8, !tbaa !91
  %.not42 = icmp eq i64 %6, 0
  br i1 %.not42, label %.split.us.thread, label %.preheader37.split.us

.preheader37.split.us:                            ; preds = %.preheader37
  %7 = getelementptr inbounds nuw i8, ptr %0, i64 1656
  %8 = load ptr, ptr %7, align 8, !tbaa !92
  br label %.preheader.us

.preheader.us:                                    ; preds = %..loopexit_crit_edge.us, %.preheader37.split.us
  %.041.us = phi i64 [ 0, %.preheader37.split.us ], [ %.1.us, %..loopexit_crit_edge.us ]
  %.03339.us = phi i64 [ 0, %.preheader37.split.us ], [ %20, %..loopexit_crit_edge.us ]
  %9 = getelementptr inbounds nuw [17 x i16], ptr @supported_groups_default, i64 0, i64 %.03339.us
  %10 = load i16, ptr %9, align 2, !tbaa !93
  br label %13

11:                                               ; preds = %13
  %12 = add nuw i64 %.03238.us, 1
  %exitcond.not = icmp eq i64 %12, %6
  br i1 %exitcond.not, label %..loopexit_crit_edge.us, label %13, !llvm.loop !94

13:                                               ; preds = %.preheader.us, %11
  %.03238.us = phi i64 [ 0, %.preheader.us ], [ %12, %11 ]
  %14 = getelementptr inbounds nuw %struct.tls_group_info_st, ptr %8, i64 %.03238.us, i32 4
  %15 = load i16, ptr %14, align 4, !tbaa !96
  %16 = icmp eq i16 %15, %10
  br i1 %16, label %17, label %11

17:                                               ; preds = %13
  %18 = add i64 %.041.us, 1
  %19 = getelementptr inbounds nuw [17 x i16], ptr %2, i64 0, i64 %.041.us
  store i16 %10, ptr %19, align 2, !tbaa !93
  br label %..loopexit_crit_edge.us

..loopexit_crit_edge.us:                          ; preds = %11, %17
  %.1.us = phi i64 [ %18, %17 ], [ %.041.us, %11 ]
  %20 = add nuw nsw i64 %.03339.us, 1
  %exitcond45.not = icmp eq i64 %20, 17
  br i1 %exitcond45.not, label %.split.us, label %.preheader.us, !llvm.loop !98

.split.us:                                        ; preds = %..loopexit_crit_edge.us
  %21 = icmp eq i64 %.1.us, 0
  br i1 %21, label %.split.us.thread, label %22

22:                                               ; preds = %.split.us
  %23 = shl i64 %.1.us, 1
  %24 = tail call noalias ptr @CRYPTO_malloc(i64 noundef %23, ptr noundef nonnull @.str.2, i32 noundef 402) #14
  %25 = getelementptr inbounds nuw i8, ptr %0, i64 704
  store ptr %24, ptr %25, align 8, !tbaa !99
  %26 = icmp eq ptr %24, null
  br i1 %26, label %.split.us.thread, label %27

27:                                               ; preds = %22
  call void @llvm.memcpy.p0.p0.i64(ptr nonnull align 2 %24, ptr nonnull align 16 %2, i64 %23, i1 false)
  %28 = getelementptr inbounds nuw i8, ptr %0, i64 712
  store i64 %.1.us, ptr %28, align 8, !tbaa !100
  %29 = getelementptr inbounds nuw i8, ptr %0, i64 680
  %30 = load ptr, ptr %29, align 8, !tbaa !101
  %31 = icmp eq ptr %30, null
  br i1 %31, label %32, label %.thread

32:                                               ; preds = %27
  %33 = tail call noalias ptr @CRYPTO_malloc(i64 noundef 2, ptr noundef nonnull @.str.2, i32 noundef 418) #14
  store ptr %33, ptr %29, align 8, !tbaa !101
  %34 = icmp eq ptr %33, null
  br i1 %34, label %.split.us.thread, label %.thread

.thread:                                          ; preds = %27, %32
  %35 = phi ptr [ %33, %32 ], [ %30, %27 ]
  %36 = getelementptr inbounds nuw i8, ptr %0, i64 672
  store i64 1, ptr %36, align 8, !tbaa !102
  store i16 0, ptr %35, align 2, !tbaa !93
  %37 = getelementptr inbounds nuw i8, ptr %0, i64 696
  %38 = load ptr, ptr %37, align 8, !tbaa !103
  %39 = icmp eq ptr %38, null
  br i1 %39, label %40, label %.thread36

40:                                               ; preds = %.thread
  %41 = tail call noalias ptr @CRYPTO_malloc(i64 noundef 8, ptr noundef nonnull @.str.2, i32 noundef 425) #14
  store ptr %41, ptr %37, align 8, !tbaa !103
  %42 = icmp eq ptr %41, null
  br i1 %42, label %.split.us.thread, label %.thread36

.thread36:                                        ; preds = %.thread, %40
  %43 = phi ptr [ %41, %40 ], [ %38, %.thread ]
  %44 = getelementptr inbounds nuw i8, ptr %0, i64 688
  store i64 1, ptr %44, align 8, !tbaa !104
  %45 = load i64, ptr %28, align 8, !tbaa !100
  store i64 %45, ptr %43, align 8, !tbaa !105
  br label %.split.us.thread

.split.us.thread:                                 ; preds = %.preheader37, %40, %32, %22, %.split.us, %1, %.thread36
  %.034 = phi i32 [ 1, %.thread36 ], [ 0, %1 ], [ 1, %.split.us ], [ 0, %22 ], [ 0, %32 ], [ 0, %40 ], [ 1, %.preheader37 ]
  call void @llvm.lifetime.end.p0(i64 34, ptr nonnull %2) #14
  ret i32 %.034
}